target datalayout = "e-m:e-p270:32:32-p271:32:32-p272:64:64-i64:64-i128:128-f80:128-n8:16:32:64-S128"
target triple = "x86_64-pc-linux-gnu"

%struct.ident_t = type { i32, i32, i32, i32, ptr }
%"struct.faiss::HeapArray.2" = type { i64, i64, ptr, ptr }

@1 = private unnamed_addr constant %struct.ident_t { i32 0, i32 514, i32 0, i32 22, ptr @0 }, align 8

; Function Attrs: mustprogress nounwind uwtable
define linkonce_odr noundef float @_ZNSt14numeric_limitsIfE6lowestEv() #0 comdat align 2 {
  ret float 0xC7EFFFFFE0000000
}

; Function Attrs: inlinehint mustprogress nounwind uwtable
define linkonce_odr noundef zeroext i1 @_ZN5faiss4CMaxIfiE3cmpEff(float noundef %0, float noundef %1) #6 comdat align 2 {
  %3 = alloca float, align 4
  %4 = alloca float, align 4
  store float %0, ptr %3, align 4, !tbaa !24
  store float %1, ptr %4, align 4, !tbaa !24
  %5 = load float, ptr %3, align 4, !tbaa !24
  %6 = load float, ptr %4, align 4, !tbaa !24
  %7 = fcmp ogt float %5, %6
  ret i1 %7
}

; Function Attrs: inlinehint mustprogress nounwind uwtable
define linkonce_odr noundef float @_ZN5faiss4CMinIfiE7neutralEv() #6 comdat align 2 {
  %1 = call noundef float @_ZNSt14numeric_limitsIfE6lowestEv() #3
  ret float %1
}

; Function Attrs: noinline norecurse nounwind uwtable
define internal void @_ZNK5faiss9HeapArrayINS_4CMaxIfiEEE16per_line_extremaEPfPi.omp_outlined(ptr noalias noundef %0, ptr noalias noundef %1, ptr noundef %2, ptr noundef nonnull align 8 dereferenceable(8) %3, ptr noundef nonnull align 8 dereferenceable(8) %4) #7 {
  %6 = alloca ptr, align 8
  %7 = alloca ptr, align 8
  %8 = alloca ptr, align 8
  %9 = alloca ptr, align 8
  %10 = alloca ptr, align 8
  %11 = alloca i64, align 8
  %12 = alloca i64, align 8
  %13 = alloca i64, align 8
  %14 = alloca i64, align 8
  %15 = alloca i64, align 8
  %16 = alloca i64, align 8
  %17 = alloca i64, align 8
  %18 = alloca i32, align 4
  %19 = alloca i64, align 8
  %20 = alloca i64, align 8
  %21 = alloca float, align 4
  %22 = alloca ptr, align 8
  %23 = alloca i64, align 8
  store ptr %0, ptr %6, align 8, !tbaa !17
  store ptr %1, ptr %7, align 8, !tbaa !17
  store ptr %2, ptr %8, align 8, !tbaa !105
  store ptr %3, ptr %9, align 8, !tbaa !33
  store ptr %4, ptr %10, align 8, !tbaa !97
  %24 = load ptr, ptr %8, align 8, !tbaa !105
  %25 = load ptr, ptr %9, align 8, !tbaa !33
  %26 = load ptr, ptr %10, align 8, !tbaa !97
  call void @llvm.lifetime.start.p0(i64 8, ptr %11) #3
  call void @llvm.lifetime.start.p0(i64 8, ptr %12) #3
  %27 = getelementptr inbounds nuw %"struct.faiss::HeapArray.2", ptr %24, i32 0, i32 0
  %28 = load i64, ptr %27, align 8, !tbaa !111
  store i64 %28, ptr %12, align 8, !tbaa !9
  call void @llvm.lifetime.start.p0(i64 8, ptr %13) #3
  %29 = load i64, ptr %12, align 8, !tbaa !9
  %30 = sub i64 %29, 0
  %31 = udiv i64 %30, 1
  %32 = sub i64 %31, 1
  store i64 %32, ptr %13, align 8, !tbaa !9
  call void @llvm.lifetime.start.p0(i64 8, ptr %14) #3
  store i64 0, ptr %14, align 8, !tbaa !9
  call void @llvm.lifetime.end.p0(i64 8, ptr %14) #3
  %33 = load i64, ptr %12, align 8, !tbaa !9
  %34 = icmp ult i64 0, %33
  br i1 %34, label %35, label %138

35:                                               ; preds = %5
  call void @llvm.lifetime.start.p0(i64 8, ptr %15) #3
  store i64 0, ptr %15, align 8, !tbaa !9
  call void @llvm.lifetime.start.p0(i64 8, ptr %16) #3
  %36 = load i64, ptr %13, align 8, !tbaa !9
  store i64 %36, ptr %16, align 8, !tbaa !9
  call void @llvm.lifetime.start.p0(i64 8, ptr %17) #3
  store i64 1, ptr %17, align 8, !tbaa !9
  call void @llvm.lifetime.start.p0(i64 4, ptr %18) #3
  store i32 0, ptr %18, align 4, !tbaa !20
  call void @llvm.lifetime.start.p0(i64 8, ptr %19) #3
  %37 = load ptr, ptr %6, align 8
  %38 = load i32, ptr %37, align 4, !tbaa !20
  call void @__kmpc_for_static_init_8u(ptr @1, i32 %38, i32 34, ptr %18, ptr %15, ptr %16, ptr %17, i64 1, i64 1)
  %39 = load i64, ptr %16, align 8, !tbaa !9
  %40 = load i64, ptr %13, align 8, !tbaa !9
  %41 = icmp ugt i64 %39, %40
  br i1 %41, label %42, label %44

42:                                               ; preds = %35
  %43 = load i64, ptr %13, align 8, !tbaa !9
  br label %46

44:                                               ; preds = %35
  %45 = load i64, ptr %16, align 8, !tbaa !9
  br label %46

46:                                               ; preds = %44, %42
  %47 = phi i64 [ %43, %42 ], [ %45, %44 ]
  store i64 %47, ptr %16, align 8, !tbaa !9
  %48 = load i64, ptr %15, align 8, !tbaa !9
  store i64 %48, ptr %11, align 8, !tbaa !9
  br label %49

49:                                               ; preds = %131, %46
  %50 = load i64, ptr %11, align 8, !tbaa !9
  %51 = load i64, ptr %16, align 8, !tbaa !9
  %52 = add i64 %51, 1
  %53 = icmp ult i64 %50, %52
  br i1 %53, label %55, label %54

54:                                               ; preds = %49
  br label %134

55:                                               ; preds = %49
  %56 = load i64, ptr %11, align 8, !tbaa !9
  %57 = mul i64 %56, 1
  %58 = add i64 0, %57
  store i64 %58, ptr %19, align 8, !tbaa !9
  call void @llvm.lifetime.start.p0(i64 8, ptr %20) #3
  store i64 -1, ptr %20, align 8, !tbaa !9
  call void @llvm.lifetime.start.p0(i64 4, ptr %21) #3
  %59 = call noundef float @_ZN5faiss4CMinIfiE7neutralEv()
  store float %59, ptr %21, align 4, !tbaa !24
  call void @llvm.lifetime.start.p0(i64 8, ptr %22) #3
  %60 = getelementptr inbounds nuw %"struct.faiss::HeapArray.2", ptr %24, i32 0, i32 3
  %61 = load ptr, ptr %60, align 8, !tbaa !107
  %62 = load i64, ptr %19, align 8, !tbaa !9
  %63 = getelementptr inbounds nuw %"struct.faiss::HeapArray.2", ptr %24, i32 0, i32 1
  %64 = load i64, ptr %63, align 8, !tbaa !109
  %65 = mul i64 %62, %64
  %66 = getelementptr inbounds nuw float, ptr %61, i64 %65
  store ptr %66, ptr %22, align 8, !tbaa !22
  call void @llvm.lifetime.start.p0(i64 8, ptr %23) #3
  store i64 0, ptr %23, align 8, !tbaa !9
  br label %67

67:                                               ; preds = %87, %55
  %68 = load i64, ptr %23, align 8, !tbaa !9
  %69 = getelementptr inbounds nuw %"struct.faiss::HeapArray.2", ptr %24, i32 0, i32 1
  %70 = load i64, ptr %69, align 8, !tbaa !109
  %71 = icmp ult i64 %68, %70
  br i1 %71, label %73, label %72

72:                                               ; preds = %67
  call void @llvm.lifetime.end.p0(i64 8, ptr %23) #3
  br label %90

73:                                               ; preds = %67
  %74 = load ptr, ptr %22, align 8, !tbaa !22
  %75 = load i64, ptr %23, align 8, !tbaa !9
  %76 = getelementptr inbounds nuw float, ptr %74, i64 %75
  %77 = load float, ptr %76, align 4, !tbaa !24
  %78 = load float, ptr %21, align 4, !tbaa !24
  %79 = call noundef zeroext i1 @_ZN5faiss4CMaxIfiE3cmpEff(float noundef %77, float noundef %78)
  br i1 %79, label %80, label %86

80:                                               ; preds = %73
  %81 = load ptr, ptr %22, align 8, !tbaa !22
  %82 = load i64, ptr %23, align 8, !tbaa !9
  %83 = getelementptr inbounds nuw float, ptr %81, i64 %82
  %84 = load float, ptr %83, align 4, !tbaa !24
  store float %84, ptr %21, align 4, !tbaa !24
  %85 = load i64, ptr %23, align 8, !tbaa !9
  store i64 %85, ptr %20, align 8, !tbaa !9
  br label %86

86:                                               ; preds = %80, %73
  br label %87

87:                                               ; preds = %86
  %88 = load i64, ptr %23, align 8, !tbaa !9
  %89 = add i64 %88, 1
  store i64 %89, ptr %23, align 8, !tbaa !9
  br label %67, !llvm.loop !123

90:                                               ; preds = %72
  %91 = load ptr, ptr %25, align 8, !tbaa !22
  %92 = icmp ne ptr %91, null
  br i1 %92, label %93, label %98

93:                                               ; preds = %90
  %94 = load float, ptr %21, align 4, !tbaa !24
  %95 = load ptr, ptr %25, align 8, !tbaa !22
  %96 = load i64, ptr %19, align 8, !tbaa !9
  %97 = getelementptr inbounds float, ptr %95, i64 %96
  store float %94, ptr %97, align 4, !tbaa !24
  br label %98

98:                                               ; preds = %93, %90
  %99 = load ptr, ptr %26, align 8, !tbaa !17
  %100 = icmp ne ptr %99, null
  br i1 %100, label %101, label %129

101:                                              ; preds = %98
  %102 = getelementptr inbounds nuw %"struct.faiss::HeapArray.2", ptr %24, i32 0, i32 2
  %103 = load ptr, ptr %102, align 8, !tbaa !110
  %104 = icmp ne ptr %103, null
  br i1 %104, label %105, label %122

105:                                              ; preds = %101
  %106 = load i64, ptr %20, align 8, !tbaa !9
  %107 = icmp ne i64 %106, -1
  br i1 %107, label %108, label %122

108:                                              ; preds = %105
  %109 = getelementptr inbounds nuw %"struct.faiss::HeapArray.2", ptr %24, i32 0, i32 2
  %110 = load ptr, ptr %109, align 8, !tbaa !110
  %111 = load i64, ptr %19, align 8, !tbaa !9
  %112 = getelementptr inbounds nuw %"struct.faiss::HeapArray.2", ptr %24, i32 0, i32 1
  %113 = load i64, ptr %112, align 8, !tbaa !109
  %114 = mul i64 %111, %113
  %115 = load i64, ptr %20, align 8, !tbaa !9
  %116 = add i64 %114, %115
  %117 = getelementptr inbounds nuw i32, ptr %110, i64 %116
  %118 = load i32, ptr %117, align 4, !tbaa !20
  %119 = load ptr, ptr %26, align 8, !tbaa !17
  %120 = load i64, ptr %19, align 8, !tbaa !9
  %121 = getelementptr inbounds i32, ptr %119, i64 %120
  store i32 %118, ptr %121, align 4, !tbaa !20
  br label %128

122:                                              ; preds = %105, %101
  %123 = load i64, ptr %20, align 8, !tbaa !9
  %124 = trunc i64 %123 to i32
  %125 = load ptr, ptr %26, align 8, !tbaa !17
  %126 = load i64, ptr %19, align 8, !tbaa !9
  %127 = getelementptr inbounds i32, ptr %125, i64 %126
  store i32 %124, ptr %127, align 4, !tbaa !20
  br label %128

128:                                              ; preds = %122, %108
  br label %129

129:                                              ; preds = %128, %98
  call void @llvm.lifetime.end.p0(i64 8, ptr %22) #3
  call void @llvm.lifetime.end.p0(i64 4, ptr %21) #3
  call void @llvm.lifetime.end.p0(i64 8, ptr %20) #3
  br label %130

130:                                              ; preds = %129
  br label %131

131:                                              ; preds = %130
  %132 = load i64, ptr %11, align 8, !tbaa !9
  %133 = add i64 %132, 1
  store i64 %133, ptr %11, align 8, !tbaa !9
  br label %49

134:                                              ; preds = %54
  br label %135

135:                                              ; preds = %134
  %136 = load ptr, ptr %6, align 8
  %137 = load i32, ptr %136, align 4, !tbaa !20
  call void @__kmpc_for_static_fini(ptr @1, i32 %137)
  call void @llvm.lifetime.end.p0(i64 8, ptr %19) #3
  call void @llvm.lifetime.end.p0(i64 4, ptr %18) #3
  call void @llvm.lifetime.end.p0(i64 8, ptr %17) #3
  call void @llvm.lifetime.end.p0(i64 8, ptr %16) #3
  call void @llvm.lifetime.end.p0(i64 8, ptr %15) #3
  br label %138

138:                                              ; preds = %135, %5
  call void @llvm.lifetime.end.p0(i64 8, ptr %13) #3
  call void @llvm.lifetime.end.p0(i64 8, ptr %12) #3
  call void @llvm.lifetime.end.p0(i64 8, ptr %11) #3
  ret void
}