; Function Attrs: noinline norecurse nounwind uwtable
define internal void @_ZNK5faiss9HeapArrayINS_4CMaxIfiEEE16per_line_extremaEPfPi.omp_outlined(ptr noalias noundef readonly captures(none) %0, ptr noalias readnone captures(none) %1, ptr noundef readonly captures(none) %2, ptr noundef nonnull readonly align 8 captures(none) dereferenceable(8) %3, ptr noundef nonnull readonly align 8 captures(none) dereferenceable(8) %4) #6 {
  %6 = alloca i64, align 8
  %7 = alloca i64, align 8
  %8 = alloca i64, align 8
  %9 = alloca i32, align 4
  %10 = load i64, ptr %2, align 8, !tbaa !86
  %.not = icmp eq i64 %10, 0
  br i1 %.not, label %64, label %11

11:                                               ; preds = %5
  %12 = add i64 %10, -1
  call void @llvm.lifetime.start.p0(i64 8, ptr nonnull %6) #3
  store i64 0, ptr %6, align 8, !tbaa !15
  call void @llvm.lifetime.start.p0(i64 8, ptr nonnull %7) #3
  store i64 %12, ptr %7, align 8, !tbaa !15
  call void @llvm.lifetime.start.p0(i64 8, ptr nonnull %8) #3
  store i64 1, ptr %8, align 8, !tbaa !15
  call void @llvm.lifetime.start.p0(i64 4, ptr nonnull %9) #3
  store i32 0, ptr %9, align 4, !tbaa !16
  %13 = load i32, ptr %0, align 4, !tbaa !16
  call void @__kmpc_for_static_init_8u(ptr nonnull @1, i32 %13, i32 34, ptr nonnull %9, ptr nonnull %6, ptr nonnull %7, ptr nonnull %8, i64 1, i64 1)
  %14 = load i64, ptr %7, align 8, !tbaa !15
  %15 = call i64 @llvm.umin.i64(i64 %14, i64 %12)
  store i64 %15, ptr %7, align 8, !tbaa !15
  %16 = load i64, ptr %6, align 8, !tbaa !15
  %17 = add nuw i64 %15, 1
  %.not76 = icmp ugt i64 %16, %15
  br i1 %.not76, label %._crit_edge46, label %.lr.ph45

.lr.ph45:                                         ; preds = %11
  %18 = getelementptr inbounds nuw i8, ptr %2, i64 24
  %19 = load ptr, ptr %18, align 8, !tbaa !82
  %20 = getelementptr inbounds nuw i8, ptr %2, i64 8
  %21 = load i64, ptr %20, align 8, !tbaa !84
  %.not61 = icmp eq i64 %21, 0
  %22 = load ptr, ptr %3, align 8, !tbaa !26
  %.not37 = icmp eq ptr %22, null
  %23 = load ptr, ptr %4, align 8, !tbaa !75
  %.not38 = icmp eq ptr %23, null
  br i1 %.not38, label %.lr.ph45.split.us, label %.lr.ph45.split

.lr.ph45.split.us:                                ; preds = %.lr.ph45
  br i1 %.not61, label %.lr.ph45.split.us.split, label %.lr.ph45.split.us.split.us

.lr.ph45.split.us.split.us:                       ; preds = %.lr.ph45.split.us
  br i1 %.not37, label %._crit_edge46, label %.lr.ph.us.us

.lr.ph.us.us:                                     ; preds = %.lr.ph45.split.us.split.us, %._crit_edge.us.us
  %.03043.us.us = phi i64 [ %32, %._crit_edge.us.us ], [ %16, %.lr.ph45.split.us.split.us ]
  %24 = mul i64 %21, %.03043.us.us
  %25 = getelementptr inbounds nuw float, ptr %19, i64 %24
  br label %26

26:                                               ; preds = %.lr.ph.us.us, %26
  %.041.us.us = phi i64 [ 0, %.lr.ph.us.us ], [ %30, %26 ]
  %.03140.us.us = phi float [ 0xC7EFFFFFE0000000, %.lr.ph.us.us ], [ %.1.us.us, %26 ]
  %27 = getelementptr inbounds nuw float, ptr %25, i64 %.041.us.us
  %28 = load float, ptr %27, align 4, !tbaa !18
  %29 = fcmp ogt float %28, %.03140.us.us
  %.1.us.us = select i1 %29, float %28, float %.03140.us.us
  %30 = add nuw i64 %.041.us.us, 1
  %exitcond70.not = icmp eq i64 %30, %21
  br i1 %exitcond70.not, label %._crit_edge.us.us, label %26, !llvm.loop !95

._crit_edge.us.us:                                ; preds = %26
  %31 = getelementptr inbounds float, ptr %22, i64 %.03043.us.us
  store float %.1.us.us, ptr %31, align 4, !tbaa !18
  %32 = add nuw i64 %.03043.us.us, 1
  %exitcond71.not = icmp eq i64 %.03043.us.us, %15
  br i1 %exitcond71.not, label %._crit_edge46, label %.lr.ph.us.us

.lr.ph45.split.us.split:                          ; preds = %.lr.ph45.split.us
  br i1 %.not37, label %._crit_edge46, label %.lr.ph45.split.us.split.split

.lr.ph45.split.us.split.split:                    ; preds = %.lr.ph45.split.us.split, %.lr.ph45.split.us.split.split
  %.03043.us = phi i64 [ %34, %.lr.ph45.split.us.split.split ], [ %16, %.lr.ph45.split.us.split ]
  %33 = getelementptr inbounds float, ptr %22, i64 %.03043.us
  store float 0xC7EFFFFFE0000000, ptr %33, align 4, !tbaa !18
  %34 = add nuw i64 %.03043.us, 1
  %exitcond72.not = icmp eq i64 %.03043.us, %15
  br i1 %exitcond72.not, label %._crit_edge46, label %.lr.ph45.split.us.split.split

.lr.ph45.split:                                   ; preds = %.lr.ph45
  %35 = getelementptr inbounds nuw i8, ptr %2, i64 16
  %36 = load ptr, ptr %35, align 8, !tbaa !85
  %37 = icmp ne ptr %36, null
  br i1 %.not61, label %.lr.ph45.split.split, label %.lr.ph.us55

.lr.ph.us55:                                      ; preds = %.lr.ph45.split, %50
  %.03043.us47 = phi i64 [ %52, %50 ], [ %16, %.lr.ph45.split ]
  %38 = mul i64 %21, %.03043.us47
  %39 = getelementptr inbounds nuw float, ptr %19, i64 %38
  br label %53

40:                                               ; preds = %._crit_edge.us56
  %41 = getelementptr inbounds float, ptr %22, i64 %.03043.us47
  store float %.1.us54, ptr %41, align 4, !tbaa !18
  br label %42

42:                                               ; preds = %40, %._crit_edge.us56
  %43 = icmp ne i64 %.133.us53, -1
  %or.cond.us = select i1 %37, i1 %43, i1 false
  br i1 %or.cond.us, label %46, label %44

44:                                               ; preds = %42
  %45 = trunc i64 %.133.us53 to i32
  br label %50

46:                                               ; preds = %42
  %47 = getelementptr i32, ptr %36, i64 %38
  %48 = getelementptr i32, ptr %47, i64 %.133.us53
  %49 = load i32, ptr %48, align 4, !tbaa !16
  br label %50

50:                                               ; preds = %46, %44
  %.sink = phi i32 [ %49, %46 ], [ %45, %44 ]
  %51 = getelementptr inbounds i32, ptr %23, i64 %.03043.us47
  store i32 %.sink, ptr %51, align 4, !tbaa !16
  %52 = add nuw i64 %.03043.us47, 1
  %exitcond68.not = icmp eq i64 %.03043.us47, %15
  br i1 %exitcond68.not, label %._crit_edge46, label %.lr.ph.us55

53:                                               ; preds = %.lr.ph.us55, %53
  %.041.us50 = phi i64 [ 0, %.lr.ph.us55 ], [ %57, %53 ]
  %.03140.us51 = phi float [ 0xC7EFFFFFE0000000, %.lr.ph.us55 ], [ %.1.us54, %53 ]
  %.03239.us52 = phi i64 [ -1, %.lr.ph.us55 ], [ %.133.us53, %53 ]
  %54 = getelementptr inbounds nuw float, ptr %39, i64 %.041.us50
  %55 = load float, ptr %54, align 4, !tbaa !18
  %56 = fcmp ogt float %55, %.03140.us51
  %.133.us53 = select i1 %56, i64 %.041.us50, i64 %.03239.us52
  %.1.us54 = select i1 %56, float %55, float %.03140.us51
  %57 = add nuw i64 %.041.us50, 1
  %exitcond.not = icmp eq i64 %57, %21
  br i1 %exitcond.not, label %._crit_edge.us56, label %53, !llvm.loop !95

._crit_edge.us56:                                 ; preds = %53
  br i1 %.not37, label %42, label %40

.lr.ph45.split.split:                             ; preds = %.lr.ph45.split
  br i1 %.not37, label %.lr.ph45.split.split.split.us.preheader, label %.lr.ph45.split.split.split

.lr.ph45.split.split.split.us.preheader:          ; preds = %.lr.ph45.split.split
  %58 = shl i64 %16, 2
  %scevgep = getelementptr i8, ptr %23, i64 %58
  %59 = sub i64 %17, %16
  %60 = shl nuw i64 %59, 2
  call void @llvm.memset.p0.i64(ptr align 4 %scevgep, i8 -1, i64 %60, i1 false), !tbaa !16
  br label %._crit_edge46

.lr.ph45.split.split.split:                       ; preds = %.lr.ph45.split.split, %.lr.ph45.split.split.split
  %.03043 = phi i64 [ %63, %.lr.ph45.split.split.split ], [ %16, %.lr.ph45.split.split ]
  %61 = getelementptr inbounds float, ptr %22, i64 %.03043
  store float 0xC7EFFFFFE0000000, ptr %61, align 4, !tbaa !18
  %62 = getelementptr inbounds i32, ptr %23, i64 %.03043
  store i32 -1, ptr %62, align 4, !tbaa !16
  %63 = add nuw i64 %.03043, 1
  %exitcond69.not = icmp eq i64 %.03043, %15
  br i1 %exitcond69.not, label %._crit_edge46, label %.lr.ph45.split.split.split

._crit_edge46:                                    ; preds = %50, %.lr.ph45.split.split.split, %._crit_edge.us.us, %.lr.ph45.split.us.split.split, %.lr.ph45.split.us.split, %.lr.ph45.split.us.split.us, %.lr.ph45.split.split.split.us.preheader, %11
  call void @__kmpc_for_static_fini(ptr nonnull @1, i32 %13)
  call void @llvm.lifetime.end.p0(i64 4, ptr nonnull %9) #3
  call void @llvm.lifetime.end.p0(i64 8, ptr nonnull %8) #3
  call void @llvm.lifetime.end.p0(i64 8, ptr nonnull %7) #3
  call void @llvm.lifetime.end.p0(i64 8, ptr nonnull %6) #3
  br label %64

64:                                               ; preds = %._crit_edge46, %5
  ret void
}